Certificate:
    Data:
        Version: 1 (0x0)
        Serial Number:
            dd:56:1b:db:82:d0:b5:fb
    Signature Algorithm: sha256WithRSAEncryption
        Issuer: C=US, ST=Test, L=Test, O=Personal, OU=Personal/emailAddress=test@test.com, CN=localhost
        Validity
            Not Before: Jan  6 19:59:03 2024 GMT
            Not After : Jan  3 19:59:03 2034 GMT
        Subject: C=US, ST=Test, L=Test, O=Personal, OU=Personal/emailAddress=test@test.com, CN=localhost
        Subject Public Key Info:
            Public Key Algorithm: rsaEncryption
                RSA Public-Key: (2048 bit)
                Modulus:
                    00:b8:a0:bd:79:b7:15:5e:c2:15:1a:6d:9a:27:14:
                    fe:ff:e1:5e:41:f2:e4:c3:39:ca:72:b9:6c:65:d2:
                    36:48:a2:58:47:42:cf:90:ed:1e:e0:d6:93:ce:1e:
                    ab:14:3b:a2:ea:4b:13:3d:de:37:c3:37:23:b9:7b:
                    b2:67:2f:0c:0e:5e:fc:7c:b4:66:d7:cc:65:96:f0:
                    e6:98:e8:b5:4b:25:b5:ad:a2:2c:1a:9b:a7:cf:cc:
                    bb:d1:72:39:51:e2:d6:d4:64:d5:c9:11:5e:07:3e:
                    db:21:05:2b:83:c2:2a:0a:25:f8:36:93:b1:a1:73:
                    49:74:3a:5c:38:53:b7:12:32:62:fb:e1:8e:94:7f:
                    6e:14:d5:87:99:55:09:70:95:1c:2c:97:c7:b4:a3:
                    ab:a8:3f:ea:d4:ac:da:78:b3:87:40:62:1e:a4:c5:
                    75:8a:aa:ef:3a:4f:c4:75:90:df:d7:78:d0:c7:ed:
                    bf:69:8a:52:9e:8e:c3:b3:ee:ab:63:bc:3c:c9:26:
                    d0:88:ae:6a:f4:e2:96:25:bc:90:5d:26:b1:d2:10:
                    ac:fd:73:87:66:f6:9f:aa:83:6c:27:6d:7e:db:3e:
                    a2:f5:71:25:42:83:4a:34:e1:e8:53:de:f8:f9:dc:
                    d2:12:c0:ad:46:6a:93:ba:bc:61:1b:d4:5f:4e:4e:
                    bc:71
                Exponent: 65537 (0x10001)
    Signature Algorithm: sha256WithRSAEncryption
         68:27:7f:5b:ea:a3:d2:b1:98:af:d4:3f:0e:d7:89:69:cd:70:
         1a:33:71:39:31:1b:86:56:39:2e:5b:1f:2c:fe:a8:38:08:ac:
         f2:20:1a:dc:b4:27:0d:ab:b6:73:50:21:c9:3c:db:bf:30:9c:
         90:69:3d:7b:ae:43:64:04:98:69:d3:e8:48:e6:d2:7a:05:90:
         31:6e:9f:19:76:68:36:df:a3:ec:af:96:81:99:d4:2d:fb:9f:
         cd:d2:2d:2b:a0:b0:04:01:db:35:19:65:2b:23:b9:11:4d:d8:
         6e:c6:14:10:46:b2:20:ef:63:93:44:7e:6b:07:41:84:66:92:
         d4:c6:7a:ad:fb:f1:33:0a:13:e3:bd:22:6d:59:19:93:e2:1d:
         52:64:00:8f:a3:9f:76:e9:ff:58:86:86:a5:01:45:f6:62:5f:
         33:70:91:74:a7:e8:41:f1:86:c7:89:47:9c:ae:72:e4:38:46:
         3e:af:81:b4:32:96:fc:d1:73:5c:71:af:8e:19:55:cc:27:e8:
         f0:83:97:4e:d4:51:5d:b2:b9:25:2f:ca:e9:59:f5:8c:1b:06:
         5e:81:9d:a4:ce:14:4f:78:09:56:88:34:aa:8c:58:f7:b2:5d:
         56:cd:66:d4:9b:a8:27:eb:4b:03:75:ed:6e:62:0e:18:73:10:
         4e:7f:68:1e
-----BEGIN CERTIFICATE-----
MIIDhDCCAmwCCQDdVhvbgtC1+zANBgkqhkiG9w0BAQsFADCBgzELMAkGA1UEBhMC
VVMxDTALBgNVBAgMBFRlc3QxDTALBgNVBAcMBFRlc3QxETAPBgNVBAoMCFBlcnNv
bmFsMREwDwYDVQQLDAhQZXJzb25hbDEcMBoGCSqGSIb3DQEJARYNdGVzdEB0ZXN0
LmNvbTESMBAGA1UEAwwJbG9jYWxob3N0MB4XDTI0MDEwNjE5NTkwM1oXDTM0MDEw
MzE5NTkwM1owgYMxCzAJBgNVBAYTAlVTMQ0wCwYDVQQIDARUZXN0MQ0wCwYDVQQH
DARUZXN0MREwDwYDVQQKDAhQZXJzb25hbDERMA8GA1UECwwIUGVyc29uYWwxHDAa
BgkqhkiG9w0BCQEWDXRlc3RAdGVzdC5jb20xEjAQBgNVBAMMCWxvY2FsaG9zdDCC
ASIwDQYJKoZIhvcNAQEBBQADggEPADCCAQoCggEBALigvXm3FV7CFRptmicU/v/h
XkHy5MM5ynK5bGXSNkiiWEdCz5DtHuDWk84eqxQ7oupLEz3eN8M3I7l7smcvDA5e
/Hy0ZtfMZZbw5pjotUslta2iLBqbp8/Mu9FyOVHi1tRk1ckRXgc+2yEFK4PCKgol
+DaTsaFzSXQ6XDhTtxIyYvvhjpR/bhTVh5lVCXCVHCyXx7Sjq6g/6tSs2nizh0Bi
HqTFdYqq7zpPxHWQ39d40Mftv2mKUp6Ow7Puq2O8PMkm0IiuavTiliW8kF0msdIQ
rP1zh2b2n6qDbCdtfts+ovVxJUKDSjTh6FPe+Pnc0hLArUZqk7q8YRvUX05OvHEC
AwEAATANBgkqhkiG9w0BAQsFAAOCAQEAaCd/W+qj0rGYr9Q/DteJac1wGjNxOTEb
hlY5LlsfLP6oOAis8iAa3LQnDau2c1AhyTzbvzCckGk9e65DZASYadPoSObSegWQ
MW6fGXZoNt+j7K+WgZnULfufzdItK6CwBAHbNRllKyO5EU3YbsYUEEayIO9jk0R+
awdBhGaS1MZ6rfvxMwoT470ibVkZk+IdUmQAj6Ofdun/WIaGpQFF9mJfM3CRdKfo
QfGGx4lHnK5y5DhGPq+BtDKW/NFzXHGvjhlVzCfo8IOXTtRRXbK5JS/K6Vn1jBsG
XoGdpM4UT3gJVog0qoxY97JdVs1m1JuoJ+tLA3XtbmIOGHMQTn9oHg==
-----END CERTIFICATE-----
